target datalayout = "e-m:e-p270:32:32-p271:32:32-p272:64:64-i64:64-i128:128-f80:128-n8:16:32:64-S128"
target triple = "x86_64-pc-linux-gnu"

%struct.Wlc_Ntk_t_ = type { ptr, ptr, %struct.Vec_Int_t_, %struct.Vec_Int_t_, %struct.Vec_Int_t_, %struct.Vec_Int_t_, %struct.Vec_Int_t_, %struct.Vec_Int_t_, ptr, ptr, ptr, [60 x i32], [60 x i32], i32, i32, i32, i32, i32, ptr, i32, i32, ptr, ptr, ptr, ptr, ptr, %struct.Vec_Int_t_, %struct.Vec_Int_t_, i32, %struct.Vec_Int_t_, %struct.Vec_Int_t_, %struct.Vec_Int_t_, %struct.Vec_Int_t_, %struct.Vec_Int_t_, %struct.Vec_Int_t_ }
%struct.Vec_Int_t_ = type { i32, i32, ptr }

; Function Attrs: nounwind uwtable
define internal void @Vec_IntGrow(ptr noundef %0, i32 noundef %1) #0 {
  %3 = alloca ptr, align 8
  %4 = alloca i32, align 4
  store ptr %0, ptr %3, align 8
  store i32 %1, ptr %4, align 4
  %5 = load ptr, ptr %3, align 8
  %6 = getelementptr inbounds %struct.Vec_Int_t_, ptr %5, i32 0, i32 0
  %7 = load i32, ptr %6, align 8
  %8 = load i32, ptr %4, align 4
  %9 = icmp sge i32 %7, %8
  br i1 %9, label %10, label %11

10:                                               ; preds = %2
  br label %36

11:                                               ; preds = %2
  %12 = load ptr, ptr %3, align 8
  %13 = getelementptr inbounds %struct.Vec_Int_t_, ptr %12, i32 0, i32 2
  %14 = load ptr, ptr %13, align 8
  %15 = icmp ne ptr %14, null
  br i1 %15, label %16, label %24

16:                                               ; preds = %11
  %17 = load ptr, ptr %3, align 8
  %18 = getelementptr inbounds %struct.Vec_Int_t_, ptr %17, i32 0, i32 2
  %19 = load ptr, ptr %18, align 8
  %20 = load i32, ptr %4, align 4
  %21 = sext i32 %20 to i64
  %22 = mul i64 4, %21
  %23 = call ptr @realloc(ptr noundef %19, i64 noundef %22) #10
  br label %29

24:                                               ; preds = %11
  %25 = load i32, ptr %4, align 4
  %26 = sext i32 %25 to i64
  %27 = mul i64 4, %26
  %28 = call noalias ptr @malloc(i64 noundef %27) #11
  br label %29

29:                                               ; preds = %24, %16
  %30 = phi ptr [ %23, %16 ], [ %28, %24 ]
  %31 = load ptr, ptr %3, align 8
  %32 = getelementptr inbounds %struct.Vec_Int_t_, ptr %31, i32 0, i32 2
  store ptr %30, ptr %32, align 8
  %33 = load i32, ptr %4, align 4
  %34 = load ptr, ptr %3, align 8
  %35 = getelementptr inbounds %struct.Vec_Int_t_, ptr %34, i32 0, i32 0
  store i32 %33, ptr %35, align 8
  br label %36

36:                                               ; preds = %29, %10
  ret void
}

; Function Attrs: nounwind uwtable
define ptr @Wlc_NtkAlloc(ptr noundef %0, i32 noundef %1) #0 {
  %3 = alloca ptr, align 8
  %4 = alloca i32, align 4
  %5 = alloca ptr, align 8
  store ptr %0, ptr %3, align 8
  store i32 %1, ptr %4, align 4
  %6 = call noalias ptr @calloc(i64 noundef 1, i64 noundef 832) #9
  store ptr %6, ptr %5, align 8
  %7 = load ptr, ptr %3, align 8
  %8 = icmp ne ptr %7, null
  br i1 %8, label %9, label %12

9:                                                ; preds = %2
  %10 = load ptr, ptr %3, align 8
  %11 = call ptr @Extra_FileNameGeneric(ptr noundef %10)
  br label %13

12:                                               ; preds = %2
  br label %13

13:                                               ; preds = %12, %9
  %14 = phi ptr [ %11, %9 ], [ null, %12 ]
  %15 = load ptr, ptr %5, align 8
  %16 = getelementptr inbounds %struct.Wlc_Ntk_t_, ptr %15, i32 0, i32 0
  store ptr %14, ptr %16, align 8
  %17 = load ptr, ptr %5, align 8
  %18 = getelementptr inbounds %struct.Wlc_Ntk_t_, ptr %17, i32 0, i32 2
  call void @Vec_IntGrow(ptr noundef %18, i32 noundef 111)
  %19 = load ptr, ptr %5, align 8
  %20 = getelementptr inbounds %struct.Wlc_Ntk_t_, ptr %19, i32 0, i32 3
  call void @Vec_IntGrow(ptr noundef %20, i32 noundef 111)
  %21 = load ptr, ptr %5, align 8
  %22 = getelementptr inbounds %struct.Wlc_Ntk_t_, ptr %21, i32 0, i32 4
  call void @Vec_IntGrow(ptr noundef %22, i32 noundef 111)
  %23 = load ptr, ptr %5, align 8
  %24 = getelementptr inbounds %struct.Wlc_Ntk_t_, ptr %23, i32 0, i32 5
  call void @Vec_IntGrow(ptr noundef %24, i32 noundef 111)
  %25 = load ptr, ptr %5, align 8
  %26 = getelementptr inbounds %struct.Wlc_Ntk_t_, ptr %25, i32 0, i32 6
  call void @Vec_IntGrow(ptr noundef %26, i32 noundef 111)
  %27 = call ptr (...) @Mem_FlexStart()
  %28 = load ptr, ptr %5, align 8
  %29 = getelementptr inbounds %struct.Wlc_Ntk_t_, ptr %28, i32 0, i32 21
  store ptr %27, ptr %29, align 8
  %30 = load i32, ptr %4, align 4
  %31 = load ptr, ptr %5, align 8
  %32 = getelementptr inbounds %struct.Wlc_Ntk_t_, ptr %31, i32 0, i32 20
  store i32 %30, ptr %32, align 4
  %33 = load ptr, ptr %5, align 8
  %34 = getelementptr inbounds %struct.Wlc_Ntk_t_, ptr %33, i32 0, i32 20
  %35 = load i32, ptr %34, align 4
  %36 = sext i32 %35 to i64
  %37 = call noalias ptr @calloc(i64 noundef %36, i64 noundef 24) #9
  %38 = load ptr, ptr %5, align 8
  %39 = getelementptr inbounds %struct.Wlc_Ntk_t_, ptr %38, i32 0, i32 18
  store ptr %37, ptr %39, align 8
  %40 = load ptr, ptr %5, align 8
  %41 = getelementptr inbounds %struct.Wlc_Ntk_t_, ptr %40, i32 0, i32 19
  store i32 1, ptr %41, align 8
  %42 = load ptr, ptr %5, align 8
  ret ptr %42
}