; Function Attrs: nounwind uwtable
define noalias noundef ptr @Wlc_NtkAlloc(ptr noundef %0, i32 noundef %1) local_unnamed_addr #3 {
  %3 = tail call noalias dereferenceable_or_null(832) ptr @calloc(i64 noundef 1, i64 noundef 832) #24
  %.not = icmp eq ptr %0, null
  br i1 %.not, label %Vec_IntGrow.exit25, label %4

4:                                                ; preds = %2
  %5 = tail call ptr @Extra_FileNameGeneric(ptr noundef nonnull %0) #25
  br label %Vec_IntGrow.exit25

Vec_IntGrow.exit25:                               ; preds = %2, %4
  %6 = phi ptr [ %5, %4 ], [ null, %2 ]
  store ptr %6, ptr %3, align 8
  %7 = getelementptr inbounds nuw i8, ptr %3, i64 16
  %8 = getelementptr inbounds nuw i8, ptr %3, i64 24
  %9 = tail call noalias dereferenceable_or_null(444) ptr @malloc(i64 noundef 444) #26
  store ptr %9, ptr %8, align 8
  store i32 111, ptr %7, align 8
  %10 = getelementptr inbounds nuw i8, ptr %3, i64 32
  %11 = getelementptr inbounds nuw i8, ptr %3, i64 40
  %12 = tail call noalias dereferenceable_or_null(444) ptr @malloc(i64 noundef 444) #26
  store ptr %12, ptr %11, align 8
  store i32 111, ptr %10, align 8
  %13 = getelementptr inbounds nuw i8, ptr %3, i64 48
  %14 = getelementptr inbounds nuw i8, ptr %3, i64 56
  %15 = tail call noalias dereferenceable_or_null(444) ptr @malloc(i64 noundef 444) #26
  store ptr %15, ptr %14, align 8
  store i32 111, ptr %13, align 8
  %16 = getelementptr inbounds nuw i8, ptr %3, i64 64
  %17 = getelementptr inbounds nuw i8, ptr %3, i64 72
  %18 = tail call noalias dereferenceable_or_null(444) ptr @malloc(i64 noundef 444) #26
  store ptr %18, ptr %17, align 8
  store i32 111, ptr %16, align 8
  %19 = getelementptr inbounds nuw i8, ptr %3, i64 80
  %20 = getelementptr inbounds nuw i8, ptr %3, i64 88
  %21 = tail call noalias dereferenceable_or_null(444) ptr @malloc(i64 noundef 444) #26
  store ptr %21, ptr %20, align 8
  store i32 111, ptr %19, align 8
  %22 = tail call ptr (...) @Mem_FlexStart() #25
  %23 = getelementptr inbounds nuw i8, ptr %3, i64 656
  store ptr %22, ptr %23, align 8
  %24 = getelementptr inbounds nuw i8, ptr %3, i64 652
  store i32 %1, ptr %24, align 4
  %25 = sext i32 %1 to i64
  %26 = tail call noalias ptr @calloc(i64 noundef %25, i64 noundef 24) #24
  %27 = getelementptr inbounds nuw i8, ptr %3, i64 640
  store ptr %26, ptr %27, align 8
  %28 = getelementptr inbounds nuw i8, ptr %3, i64 648
  store i32 1, ptr %28, align 8
  ret ptr %3
}